///////////////////////////////////////////////////////////////////////////////
//                                                                            /
// IAR ANSI C/C++ Compiler V6.30.1.53127/W32 for ARM    24/Mar/2012  16:13:07 /
// Copyright 1999-2011 IAR Systems AB.                                        /
//                                                                            /
//    Cpu mode     =  thumb                                                   /
//    Endian       =  little                                                  /
//    Source file  =  D:\workspace\myworkspace\SW_K60\src\common\stdlib.c     /
//    Command line =  D:\workspace\myworkspace\SW_K60\src\common\stdlib.c     /
//                    -lCN D:\workspace\myworkspace\SW_K60\build\gpio_demo\RA /
//                    M\List\ -lB D:\workspace\myworkspace\SW_K60\build\gpio_ /
//                    demo\RAM\List\ -o D:\workspace\myworkspace\SW_K60\build /
//                    \gpio_demo\RAM\Obj\ --no_cse --no_unroll --no_inline    /
//                    --no_code_motion --no_tbaa --no_clustering              /
//                    --no_scheduling --debug --endian=little                 /
//                    --cpu=Cortex-M4 -e --fpu=None --dlib_config             /
//                    "C:\Program Files\IAR Systems\Embedded Workbench        /
//                    6.0_3\arm\INC\c\DLib_Config_Normal.h" -I                /
//                    D:\workspace\myworkspace\SW_K60\build\gpio_demo\..\ -I  /
//                    D:\workspace\myworkspace\SW_K60\build\gpio_demo\..\..\s /
//                    rc\common\ -I D:\workspace\myworkspace\SW_K60\build\gpi /
//                    o_demo\..\..\src\cpu\ -I D:\workspace\myworkspace\SW_K6 /
//                    0\build\gpio_demo\..\..\src\drivers\ -I                 /
//                    D:\workspace\myworkspace\SW_K60\build\gpio_demo\..\..\s /
//                    rc\drivers\gpio\ -I D:\workspace\myworkspace\SW_K60\bui /
//                    ld\gpio_demo\..\..\src\drivers\wdog\ -I                 /
//                    D:\workspace\myworkspace\SW_K60\build\gpio_demo\..\..\s /
//                    rc\drivers\mcg\ -I D:\workspace\myworkspace\SW_K60\buil /
//                    d\gpio_demo\..\..\src\drivers\uart\ -I                  /
//                    D:\workspace\myworkspace\SW_K60\build\gpio_demo\..\..\s /
//                    rc\platforms\ -I D:\workspace\myworkspace\SW_K60\build\ /
//                    gpio_demo\..\..\src\projects\ -I                        /
//                    D:\workspace\myworkspace\SW_K60\build\gpio_demo\..\..\s /
//                    rc\projects\fire_gpio_demo\ -Ol                         /
//    List file    =  D:\workspace\myworkspace\SW_K60\build\gpio_demo\RAM\Lis /
//                    t\stdlib.s                                              /
//                                                                            /
//                                                                            /
///////////////////////////////////////////////////////////////////////////////

        NAME stdlib

        #define SHT_PROGBITS 0x1

        PUBLIC isalnum
        PUBLIC isdigit
        PUBLIC isspace
        PUBLIC isupper
        PUBLIC memcpy
        PUBLIC memset
        PUBLIC strcasecmp
        PUBLIC strcat
        PUBLIC strcmp
        PUBLIC strcpy
        PUBLIC strlen
        PUBLIC strncasecmp
        PUBLIC strncat
        PUBLIC strncmp
        PUBLIC strncpy
        PUBLIC strtoul

// D:\workspace\myworkspace\SW_K60\src\common\stdlib.c
//    1 /*
//    2  * File:        stdlib.c
//    3  * Purpose:     Functions normally found in a standard C lib.
//    4  *
//    5  * Notes:       This supports ASCII only!!!
//    6  *
//    7  */
//    8 
//    9 #include "common.h"
//   10 #include "stdlib.h"
//   11 
//   12 /****************************************************************/

        SECTION `.text`:CODE:NOROOT(1)
        THUMB
//   13 int
//   14 isspace (int ch)
//   15 {
//   16     if ((ch == ' ') || (ch == '\t'))    /* \n ??? */
isspace:
        CMP      R0,#+32
        BEQ.N    ??isspace_0
        CMP      R0,#+9
        BNE.N    ??isspace_1
//   17         return TRUE;
??isspace_0:
        MOVS     R0,#+1
        B.N      ??isspace_2
//   18     else
//   19         return FALSE;
??isspace_1:
        MOVS     R0,#+0
??isspace_2:
        BX       LR               ;; return
//   20 }
//   21 
//   22 /****************************************************************/

        SECTION `.text`:CODE:NOROOT(1)
        THUMB
//   23 int
//   24 isalnum (int ch)
//   25 {
//   26     /* ASCII only */
//   27     if (((ch >= '0') && (ch <= '9')) ||
//   28         ((ch >= 'A') && (ch <= 'Z')) ||
//   29         ((ch >= 'a') && (ch <= 'z')))
isalnum:
        SUBS     R1,R0,#+48
        CMP      R1,#+10
        BCC.N    ??isalnum_0
        SUBS     R1,R0,#+65
        CMP      R1,#+26
        BCC.N    ??isalnum_0
        SUBS     R0,R0,#+97
        CMP      R0,#+26
        BCS.N    ??isalnum_1
//   30         return TRUE;
??isalnum_0:
        MOVS     R0,#+1
        B.N      ??isalnum_2
//   31     else
//   32         return FALSE;
??isalnum_1:
        MOVS     R0,#+0
??isalnum_2:
        BX       LR               ;; return
//   33 }
//   34 
//   35 /****************************************************************/

        SECTION `.text`:CODE:NOROOT(1)
        THUMB
//   36 int
//   37 isdigit (int ch)
//   38 {
//   39     /* ASCII only */
//   40     if ((ch >= '0') && (ch <= '9'))
isdigit:
        SUBS     R0,R0,#+48
        CMP      R0,#+10
        BCS.N    ??isdigit_0
//   41         return TRUE;
        MOVS     R0,#+1
        B.N      ??isdigit_1
//   42     else
//   43         return FALSE;
??isdigit_0:
        MOVS     R0,#+0
??isdigit_1:
        BX       LR               ;; return
//   44 }
//   45 
//   46 /****************************************************************/

        SECTION `.text`:CODE:NOROOT(1)
        THUMB
//   47 int
//   48 isupper (int ch)
//   49 {
//   50     /* ASCII only */
//   51     if ((ch >= 'A') && (ch <= 'Z'))
isupper:
        SUBS     R0,R0,#+65
        CMP      R0,#+26
        BCS.N    ??isupper_0
//   52         return TRUE;
        MOVS     R0,#+1
        B.N      ??isupper_1
//   53     else
//   54         return FALSE;
??isupper_0:
        MOVS     R0,#+0
??isupper_1:
        BX       LR               ;; return
//   55 }
//   56 
//   57 /****************************************************************/

        SECTION `.text`:CODE:NOROOT(1)
        THUMB
//   58 int
//   59 strcasecmp (const char *s1, const char *s2)
//   60 {
strcasecmp:
        PUSH     {R4}
//   61     char    c1, c2;
//   62     int     result = 0;
        MOVS     R2,#+0
//   63 
//   64     while (result == 0)
??strcasecmp_0:
        CMP      R2,#+0
        BNE.N    ??strcasecmp_1
//   65     {
//   66         c1 = *s1++;
        LDRB     R3,[R0, #+0]
        ADDS     R0,R0,#+1
//   67         c2 = *s2++;
        LDRB     R4,[R1, #+0]
        ADDS     R1,R1,#+1
//   68         if ((c1 >= 'a') && (c1 <= 'z'))
        SUBS     R2,R3,#+97
        UXTB     R2,R2            ;; ZeroExt  R2,R2,#+24,#+24
        CMP      R2,#+26
        BCS.N    ??strcasecmp_2
//   69             c1 = (char)(c1 - ' ');
        SUBS     R3,R3,#+32
//   70         if ((c2 >= 'a') && (c2 <= 'z'))
??strcasecmp_2:
        SUBS     R2,R4,#+97
        UXTB     R2,R2            ;; ZeroExt  R2,R2,#+24,#+24
        CMP      R2,#+26
        BCS.N    ??strcasecmp_3
//   71             c2 = (char)(c2 - ' ');
        SUBS     R4,R4,#+32
//   72         if ((result = (c1 - c2)) != 0)
??strcasecmp_3:
        UXTB     R3,R3            ;; ZeroExt  R3,R3,#+24,#+24
        UXTB     R4,R4            ;; ZeroExt  R4,R4,#+24,#+24
        SUBS     R2,R3,R4
        CMP      R2,#+0
        BNE.N    ??strcasecmp_1
//   73             break;
//   74         if ((c1 == 0) || (c2 == 0))
??strcasecmp_4:
        UXTB     R3,R3            ;; ZeroExt  R3,R3,#+24,#+24
        CMP      R3,#+0
        BEQ.N    ??strcasecmp_5
        UXTB     R4,R4            ;; ZeroExt  R4,R4,#+24,#+24
        CMP      R4,#+0
        BNE.N    ??strcasecmp_0
//   75             break;
//   76     }
//   77     return result;
??strcasecmp_5:
??strcasecmp_1:
        MOVS     R0,R2
        POP      {R4}
        BX       LR               ;; return
//   78 }
//   79 
//   80 
//   81 /****************************************************************/

        SECTION `.text`:CODE:NOROOT(1)
        THUMB
//   82 int
//   83 strncasecmp (const char *s1, const char *s2, int n)
//   84 {
strncasecmp:
        PUSH     {R4-R6}
//   85     char    c1, c2;
//   86     int     k = 0;
        MOVS     R6,#+0
//   87     int     result = 0;
        MOVS     R3,#+0
//   88 
//   89     while ( k++ < n )
??strncasecmp_0:
        MOVS     R4,R6
        ADDS     R6,R4,#+1
        CMP      R4,R2
        BGE.N    ??strncasecmp_1
//   90     {
//   91         c1 = *s1++;
        LDRB     R4,[R0, #+0]
        ADDS     R0,R0,#+1
//   92         c2 = *s2++;
        LDRB     R5,[R1, #+0]
        ADDS     R1,R1,#+1
//   93         if ((c1 >= 'a') && (c1 <= 'z'))
        SUBS     R3,R4,#+97
        UXTB     R3,R3            ;; ZeroExt  R3,R3,#+24,#+24
        CMP      R3,#+26
        BCS.N    ??strncasecmp_2
//   94             c1 = (char)(c1 - ' ');
        SUBS     R4,R4,#+32
//   95         if ((c2 >= 'a') && (c2 <= 'z'))
??strncasecmp_2:
        SUBS     R3,R5,#+97
        UXTB     R3,R3            ;; ZeroExt  R3,R3,#+24,#+24
        CMP      R3,#+26
        BCS.N    ??strncasecmp_3
//   96             c2 = (char)(c2 - ' ');
        SUBS     R5,R5,#+32
//   97         if ((result = (c1 - c2)) != 0)
??strncasecmp_3:
        UXTB     R4,R4            ;; ZeroExt  R4,R4,#+24,#+24
        UXTB     R5,R5            ;; ZeroExt  R5,R5,#+24,#+24
        SUBS     R3,R4,R5
        CMP      R3,#+0
        BNE.N    ??strncasecmp_1
//   98             break;
//   99         if ((c1 == 0) || (c2 == 0))
??strncasecmp_4:
        UXTB     R4,R4            ;; ZeroExt  R4,R4,#+24,#+24
        CMP      R4,#+0
        BEQ.N    ??strncasecmp_5
        UXTB     R5,R5            ;; ZeroExt  R5,R5,#+24,#+24
        CMP      R5,#+0
        BNE.N    ??strncasecmp_0
//  100             break;
//  101     }
//  102     return result;
??strncasecmp_5:
??strncasecmp_1:
        MOVS     R0,R3
        POP      {R4-R6}
        BX       LR               ;; return
//  103 }
//  104 
//  105 /****************************************************************/

        SECTION `.text`:CODE:NOROOT(1)
        THUMB
//  106 uint32
//  107 strtoul (char *str, char **ptr, int base)
//  108 {
strtoul:
        PUSH     {R3-R11,LR}
        MOVS     R4,R0
        MOVS     R5,R1
        MOVS     R6,R2
//  109     unsigned long rvalue;
//  110     int c, err, neg;
//  111     char *endp;
//  112     char *startp;
//  113 
//  114     rvalue = 0;  err = 0;  neg = 0;
        MOVS     R7,#+0
        MOVS     R8,#+0
        MOVS     R9,#+0
//  115 
//  116     /* Check for invalid arguments */
//  117     if ((str == NULL) || (base < 0) || (base == 1) || (base > 36))
        CMP      R4,#+0
        BEQ.N    ??strtoul_0
        CMP      R6,#+0
        BMI.N    ??strtoul_0
        CMP      R6,#+1
        BEQ.N    ??strtoul_0
        CMP      R6,#+37
        BLT.N    ??strtoul_1
//  118     {
//  119         if (ptr != NULL)
??strtoul_0:
        CMP      R5,#+0
        BEQ.N    ??strtoul_2
//  120         {
//  121             *ptr = str;
        STR      R4,[R5, #+0]
//  122         }
//  123         return 0;
??strtoul_2:
        MOVS     R0,#+0
        B.N      ??strtoul_3
//  124     }
//  125 
//  126     /* Skip leading white spaces */
//  127     for (startp = str; isspace(*startp); ++startp)
??strtoul_1:
        MOV      R10,R4
        B.N      ??strtoul_4
??strtoul_5:
        ADDS     R10,R10,#+1
??strtoul_4:
        LDRB     R0,[R10, #+0]
        BL       isspace
        CMP      R0,#+0
        BNE.N    ??strtoul_5
//  128         ;
//  129 
//  130     /* Check for notations */
//  131     switch (startp[0])
        LDRB     R0,[R10, #+0]
        CMP      R0,#+45
        BEQ.N    ??strtoul_6
        CMP      R0,#+48
        BNE.N    ??strtoul_7
//  132     {
//  133         case '0':
//  134             if ((startp[1] == 'x') || (startp[1] == 'X'))
??strtoul_8:
        LDRB     R0,[R10, #+1]
        CMP      R0,#+120
        BEQ.N    ??strtoul_9
        LDRB     R0,[R10, #+1]
        CMP      R0,#+88
        BNE.N    ??strtoul_10
//  135             {
//  136                 if ((base == 0) || (base == 16))
??strtoul_9:
        CMP      R6,#+0
        BEQ.N    ??strtoul_11
        CMP      R6,#+16
        BNE.N    ??strtoul_10
//  137                 {
//  138                     base = 16;
??strtoul_11:
        MOVS     R6,#+16
//  139                     startp = &startp[2];
        ADDS     R10,R10,#+2
//  140                 }
//  141             }
//  142             break;
??strtoul_10:
        B.N      ??strtoul_12
//  143         case '-':
//  144             neg = 1;
??strtoul_6:
        MOVS     R9,#+1
//  145             startp = &startp[1];
        ADDS     R10,R10,#+1
//  146             break;
        B.N      ??strtoul_12
//  147         default:
//  148             break;
//  149     }
//  150 
//  151     if (base == 0)
??strtoul_7:
??strtoul_12:
        CMP      R6,#+0
        BNE.N    ??strtoul_13
//  152         base = 10;
        MOVS     R6,#+10
//  153 
//  154     /* Check for invalid chars in str */
//  155     for ( endp = startp; (c = *endp) != '\0'; ++endp)
??strtoul_13:
        B.N      ??strtoul_14
//  156     {
//  157         /* Check for 0..9,Aa-Zz */
//  158         if (!isalnum(c))
//  159         {
//  160             err = 1;
//  161             break;
//  162         }
//  163 
//  164         /* Convert char to num in 0..36 */
//  165         if (isdigit(c))
//  166         {
//  167             c = c - '0';
//  168         }
//  169         else
//  170         {
//  171             if (isupper(c))
//  172             {
//  173                 c = c - 'A' + 10;
//  174             }
//  175             else
//  176             {
//  177                 c = c - 'a' + 10;
//  178             }
//  179         }
//  180 
//  181         /* check c against base */
//  182         if (c >= base)
//  183         {
//  184             err = 1;
//  185             break;
//  186         }
//  187 
//  188         if (neg)
//  189         {
//  190             rvalue = (rvalue * base) - c;
//  191         }
//  192         else
//  193         {
//  194             rvalue = (rvalue * base) + c;
??strtoul_15:
        MLA      R7,R6,R7,R11
//  195         }
??strtoul_16:
        ADDS     R10,R10,#+1
??strtoul_14:
        LDRB     R11,[R10, #+0]
        CMP      R11,#+0
        BEQ.N    ??strtoul_17
        MOV      R0,R11
        BL       isalnum
        CMP      R0,#+0
        BNE.N    ??strtoul_18
        MOVS     R8,#+1
//  196     }
//  197 
//  198     /* Upon exit, endp points to the character at which valid info */
//  199     /* STOPS.  No chars including and beyond endp are used.        */
//  200 
//  201     if (ptr != NULL)
??strtoul_17:
        CMP      R5,#+0
        BEQ.N    ??strtoul_19
//  202         *ptr = endp;
        STR      R10,[R5, #+0]
//  203 
//  204     if (err)
??strtoul_19:
        CMP      R8,#+0
        BEQ.N    ??strtoul_20
//  205     {
//  206         if (ptr != NULL)
        CMP      R5,#+0
        BEQ.N    ??strtoul_21
//  207             *ptr = str;
        STR      R4,[R5, #+0]
//  208         
//  209         return 0;
??strtoul_21:
        MOVS     R0,#+0
        B.N      ??strtoul_3
//  210     }
??strtoul_18:
        MOV      R0,R11
        BL       isdigit
        CMP      R0,#+0
        BEQ.N    ??strtoul_22
        SUBS     R11,R11,#+48
        B.N      ??strtoul_23
??strtoul_22:
        MOV      R0,R11
        BL       isupper
        CMP      R0,#+0
        BEQ.N    ??strtoul_24
        SUBS     R11,R11,#+55
        B.N      ??strtoul_23
??strtoul_24:
        SUBS     R11,R11,#+87
??strtoul_23:
        CMP      R11,R6
        BLT.N    ??strtoul_25
        MOVS     R8,#+1
        B.N      ??strtoul_17
??strtoul_25:
        CMP      R9,#+0
        BEQ.N    ??strtoul_15
        MUL      R0,R6,R7
        SUBS     R7,R0,R11
        B.N      ??strtoul_16
//  211     else
//  212     {
//  213         return rvalue;
??strtoul_20:
        MOVS     R0,R7
??strtoul_3:
        POP      {R1,R4-R11,PC}   ;; return
//  214     }
//  215 }
//  216 
//  217 /****************************************************************/

        SECTION `.text`:CODE:NOROOT(1)
        THUMB
//  218 int
//  219 strlen (const char *str)
//  220 {
//  221     char *s = (char *)str;
//  222     int len = 0;
strlen:
        MOVS     R1,#+0
//  223 
//  224     if (s == NULL)
        CMP      R0,#+0
        BNE.N    ??strlen_0
//  225         return 0;
        MOVS     R0,#+0
        B.N      ??strlen_1
//  226 
//  227     while (*s++ != '\0')
//  228         ++len;
??strlen_2:
        ADDS     R1,R1,#+1
??strlen_0:
        MOVS     R2,R0
        ADDS     R0,R2,#+1
        LDRB     R2,[R2, #+0]
        CMP      R2,#+0
        BNE.N    ??strlen_2
//  229 
//  230     return len;
        MOVS     R0,R1
??strlen_1:
        BX       LR               ;; return
//  231 }
//  232 
//  233 /****************************************************************/

        SECTION `.text`:CODE:NOROOT(1)
        THUMB
//  234 char *
//  235 strcat (char *dest, const char *src)
//  236 {
strcat:
        PUSH     {R3-R5,LR}
        MOVS     R4,R0
//  237     char *dp;
//  238     char *sp = (char *)src;
        MOVS     R5,R1
//  239 
//  240     if ((dest != NULL) && (src != NULL))
        CMP      R4,#+0
        BEQ.N    ??strcat_0
        CMP      R1,#+0
        BEQ.N    ??strcat_0
//  241     {
//  242         dp = &dest[strlen(dest)];
        MOVS     R0,R4
        BL       strlen
        ADDS     R0,R0,R4
        B.N      ??strcat_1
//  243 
//  244         while (*sp != '\0')
//  245         {
//  246             *dp++ = *sp++;
??strcat_2:
        LDRB     R1,[R5, #+0]
        STRB     R1,[R0, #+0]
        ADDS     R5,R5,#+1
        ADDS     R0,R0,#+1
//  247         }
??strcat_1:
        LDRB     R1,[R5, #+0]
        CMP      R1,#+0
        BNE.N    ??strcat_2
//  248         *dp = '\0';
        MOVS     R1,#+0
        STRB     R1,[R0, #+0]
//  249     }
//  250     return dest;
??strcat_0:
        MOVS     R0,R4
        POP      {R1,R4,R5,PC}    ;; return
//  251 }
//  252 
//  253 /****************************************************************/

        SECTION `.text`:CODE:NOROOT(1)
        THUMB
//  254 char *
//  255 strncat (char *dest, const char *src, int n)
//  256 {
strncat:
        PUSH     {R4-R6,LR}
        MOVS     R4,R0
        MOVS     R5,R2
//  257     char *dp;
//  258     char *sp = (char *)src;
        MOVS     R6,R1
//  259 
//  260     if ((dest != NULL) && (src != NULL) && (n > 0))
        CMP      R4,#+0
        BEQ.N    ??strncat_0
        CMP      R1,#+0
        BEQ.N    ??strncat_0
        CMP      R5,#+1
        BLT.N    ??strncat_0
//  261     {
//  262         dp = &dest[strlen(dest)];
        MOVS     R0,R4
        BL       strlen
        ADDS     R0,R0,R4
        B.N      ??strncat_1
//  263 
//  264         while ((*sp != '\0') && (n-- > 0))
//  265         {
//  266             *dp++ = *sp++;
??strncat_2:
        LDRB     R1,[R6, #+0]
        STRB     R1,[R0, #+0]
        ADDS     R6,R6,#+1
        ADDS     R0,R0,#+1
//  267         }
??strncat_1:
        LDRB     R1,[R6, #+0]
        CMP      R1,#+0
        BEQ.N    ??strncat_3
        MOVS     R1,R5
        SUBS     R5,R1,#+1
        CMP      R1,#+1
        BGE.N    ??strncat_2
//  268         *dp = '\0';
??strncat_3:
        MOVS     R1,#+0
        STRB     R1,[R0, #+0]
//  269     }
//  270     return dest;
??strncat_0:
        MOVS     R0,R4
        POP      {R4-R6,PC}       ;; return
//  271 }
//  272 
//  273 /****************************************************************/

        SECTION `.text`:CODE:NOROOT(1)
        THUMB
//  274 char *
//  275 strcpy (char *dest, const char *src)
//  276 {
//  277     char *dp = (char *)dest;
strcpy:
        MOVS     R2,R0
//  278     char *sp = (char *)src;
        MOVS     R3,R1
//  279 
//  280     if ((dest != NULL) && (src != NULL))
        CMP      R0,#+0
        BEQ.N    ??strcpy_0
        CMP      R1,#+0
        BEQ.N    ??strcpy_0
        B.N      ??strcpy_1
//  281     {
//  282         while (*sp != '\0')
//  283         {
//  284             *dp++ = *sp++;
??strcpy_2:
        LDRB     R1,[R3, #+0]
        STRB     R1,[R2, #+0]
        ADDS     R3,R3,#+1
        ADDS     R2,R2,#+1
//  285         }
??strcpy_1:
        LDRB     R1,[R3, #+0]
        CMP      R1,#+0
        BNE.N    ??strcpy_2
//  286         *dp = '\0';
        MOVS     R1,#+0
        STRB     R1,[R2, #+0]
//  287     }
//  288     return dest;
??strcpy_0:
        BX       LR               ;; return
//  289 }
//  290 
//  291 /****************************************************************/

        SECTION `.text`:CODE:NOROOT(1)
        THUMB
//  292 char *
//  293 strncpy (char *dest, const char *src, int n)
//  294 {
strncpy:
        PUSH     {R4}
//  295     char *dp = (char *)dest;
        MOVS     R3,R0
//  296     char *sp = (char *)src;
        MOVS     R4,R1
//  297 
//  298     if ((dest != NULL) && (src != NULL) && (n > 0))
        CMP      R0,#+0
        BEQ.N    ??strncpy_0
        CMP      R1,#+0
        BEQ.N    ??strncpy_0
        CMP      R2,#+1
        BLT.N    ??strncpy_0
        B.N      ??strncpy_1
//  299     {
//  300         while ((*sp != '\0') && (n-- > 0))
//  301         {
//  302             *dp++ = *sp++;
??strncpy_2:
        LDRB     R1,[R4, #+0]
        STRB     R1,[R3, #+0]
        ADDS     R4,R4,#+1
        ADDS     R3,R3,#+1
//  303         }
??strncpy_1:
        LDRB     R1,[R4, #+0]
        CMP      R1,#+0
        BEQ.N    ??strncpy_3
        MOVS     R1,R2
        SUBS     R2,R1,#+1
        CMP      R1,#+1
        BGE.N    ??strncpy_2
//  304         *dp = '\0';
??strncpy_3:
        MOVS     R1,#+0
        STRB     R1,[R3, #+0]
//  305     }
//  306     return dest;
??strncpy_0:
        POP      {R4}
        BX       LR               ;; return
//  307 }
//  308 
//  309 /****************************************************************/

        SECTION `.text`:CODE:NOROOT(1)
        THUMB
//  310 int
//  311 strcmp (const char *s1, const char *s2)
//  312 {
//  313     /* No checks for NULL */
//  314     char *s1p = (char *)s1;
//  315     char *s2p = (char *)s2;
strcmp:
        B.N      ??strcmp_0
//  316 
//  317     while (*s2p != '\0')
//  318     {
//  319         if (*s1p != *s2p)
//  320             break;
//  321 
//  322         ++s1p;
??strcmp_1:
        ADDS     R0,R0,#+1
//  323         ++s2p;
        ADDS     R1,R1,#+1
??strcmp_0:
        LDRB     R2,[R1, #+0]
        CMP      R2,#+0
        BEQ.N    ??strcmp_2
        LDRB     R2,[R0, #+0]
        LDRB     R3,[R1, #+0]
        CMP      R2,R3
        BEQ.N    ??strcmp_1
//  324     }
//  325     return (*s1p - *s2p);
??strcmp_2:
        LDRB     R0,[R0, #+0]
        LDRB     R1,[R1, #+0]
        SUBS     R0,R0,R1
        BX       LR               ;; return
//  326 }
//  327 
//  328 /****************************************************************/

        SECTION `.text`:CODE:NOROOT(1)
        THUMB
//  329 int
//  330 strncmp (const char *s1, const char *s2, int n)
//  331 {
strncmp:
        PUSH     {R4}
//  332     /* No checks for NULL */
//  333     char *s1p = (char *)s1;
//  334     char *s2p = (char *)s2;
//  335 
//  336     if (n <= 0)
        CMP      R2,#+1
        BGE.N    ??strncmp_0
//  337         return 0;
        MOVS     R0,#+0
        B.N      ??strncmp_1
//  338 
//  339     while (*s2p != '\0')
//  340     {
//  341         if (*s1p != *s2p)
//  342             break;
//  343 
//  344         if (--n == 0)
//  345             break;
//  346 
//  347         ++s1p;
??strncmp_2:
        ADDS     R0,R0,#+1
//  348         ++s2p;
        ADDS     R1,R1,#+1
??strncmp_0:
        LDRB     R3,[R1, #+0]
        CMP      R3,#+0
        BEQ.N    ??strncmp_3
        LDRB     R3,[R0, #+0]
        LDRB     R4,[R1, #+0]
        CMP      R3,R4
        BNE.N    ??strncmp_3
??strncmp_4:
        SUBS     R2,R2,#+1
        CMP      R2,#+0
        BNE.N    ??strncmp_2
//  349     }
//  350     return (*s1p - *s2p);
??strncmp_3:
        LDRB     R0,[R0, #+0]
        LDRB     R1,[R1, #+0]
        SUBS     R0,R0,R1
??strncmp_1:
        POP      {R4}
        BX       LR               ;; return
//  351 }
//  352 
//  353 /****************************************************************/

        SECTION `.text`:CODE:NOROOT(1)
        THUMB
//  354 void *
//  355 memcpy (void *dest, const void *src, unsigned n)
//  356 {
memcpy:
        PUSH     {R4,R5}
//  357     int longs, bytes;
//  358     uint32 *dpl = (uint32 *)dest;
        MOVS     R4,R0
//  359     uint32 *spl = (uint32 *)src;
        MOVS     R5,R1
//  360     uint8  *dpb, *spb;
//  361 
//  362     if ((dest != NULL) && (src != NULL) && (n > 0))
        CMP      R0,#+0
        BEQ.N    ??memcpy_0
        CMP      R1,#+0
        BEQ.N    ??memcpy_0
        CMP      R2,#+0
        BEQ.N    ??memcpy_0
//  363     {
//  364         bytes = (n & 0x3);
        ANDS     R3,R2,#0x3
//  365         longs = (n - bytes) >> 2;
        SUBS     R1,R2,R3
        LSRS     R1,R1,#+2
        B.N      ??memcpy_1
//  366     
//  367         while (longs--)
//  368             *dpl++ = *spl++;
??memcpy_2:
        LDR      R2,[R5, #+0]
        STR      R2,[R4, #+0]
        ADDS     R5,R5,#+4
        ADDS     R4,R4,#+4
??memcpy_1:
        MOVS     R2,R1
        SUBS     R1,R2,#+1
        CMP      R2,#+0
        BNE.N    ??memcpy_2
//  369         
//  370         dpb = (uint8 *)dpl;
//  371         spb = (uint8 *)spl;
        B.N      ??memcpy_3
//  372         
//  373         while (bytes--)
//  374             *dpb++ = *spb++;
??memcpy_4:
        LDRB     R1,[R5, #+0]
        STRB     R1,[R4, #+0]
        ADDS     R5,R5,#+1
        ADDS     R4,R4,#+1
??memcpy_3:
        MOVS     R1,R3
        SUBS     R3,R1,#+1
        CMP      R1,#+0
        BNE.N    ??memcpy_4
//  375     }
//  376     return dest;
??memcpy_0:
        POP      {R4,R5}
        BX       LR               ;; return
//  377 }
//  378 
//  379 /****************************************************************/

        SECTION `.text`:CODE:NOROOT(1)
        THUMB
//  380 void *
//  381 memset (void *s, int c, unsigned n)
//  382 {
memset:
        PUSH     {R4}
//  383     /* Not optimized, but very portable */
//  384     unsigned char *sp = (unsigned char *)s;
        MOVS     R3,R0
//  385 
//  386     if ((s != NULL) && (n > 0))
        CMP      R0,#+0
        BEQ.N    ??memset_0
        CMP      R2,#+0
        BNE.N    ??memset_1
        B.N      ??memset_0
//  387     {
//  388         while (n--)
//  389         {
//  390             *sp++ = (unsigned char)c;
??memset_2:
        STRB     R1,[R3, #+0]
        ADDS     R3,R3,#+1
//  391         }
??memset_1:
        MOVS     R4,R2
        SUBS     R2,R4,#+1
        CMP      R4,#+0
        BNE.N    ??memset_2
//  392     }
//  393     return s;
??memset_0:
        POP      {R4}
        BX       LR               ;; return
//  394 }

        SECTION `.iar_vfe_header`:DATA:REORDER:NOALLOC:NOROOT(2)
        SECTION_TYPE SHT_PROGBITS, 0
        DATA
        DC32 0

        SECTION __DLIB_PERTHREAD:DATA:REORDER:NOROOT(0)
        SECTION_TYPE SHT_PROGBITS, 0

        SECTION __DLIB_PERTHREAD_init:DATA:REORDER:NOROOT(0)
        SECTION_TYPE SHT_PROGBITS, 0

        END
//  395 
//  396 /****************************************************************/
// 
// 852 bytes in section .text
// 
// 852 bytes of CODE memory
//
//Errors: none
//Warnings: none
